; ModuleID = '49/611.c'
source_filename = "49/611.c"
target datalayout = "e-m:e-p270:32:32-p271:32:32-p272:64:64-i64:64-f80:128-n8:16:32:64-S128"
target triple = "x86_64-pc-linux-gnu"

%struct.hw = type { i32, i32 }

@queue = common dso_local global [100 x %struct.hw] zeroinitializer, align 16
@.str = private unnamed_addr constant [3 x i8] c"%c\00", align 1
@.str.1 = private unnamed_addr constant [2 x i8] c"\0A\00", align 1

; Function Attrs: noinline nounwind uwtable
define dso_local i32 @main() #0 {
  %1 = alloca i32, align 4
  %2 = alloca i32, align 4
  %3 = alloca i32, align 4
  %4 = alloca i32, align 4
  %5 = alloca i32, align 4
  %6 = alloca [100 x i8], align 16
  store i32 0, i32* %1, align 4
  store i32 0, i32* %3, align 4
  %7 = getelementptr inbounds [100 x i8], [100 x i8]* %6, i64 0, i64 0
  %8 = call i32 (i8*, ...) bitcast (i32 (...)* @gets to i32 (i8*, ...)*)(i8* %7)
  %9 = getelementptr inbounds [100 x i8], [100 x i8]* %6, i64 0, i64 0
  %10 = call i64 @strlen(i8* %9) #3
  %11 = trunc i64 %10 to i32
  store i32 %11, i32* %2, align 4
  store i32 0, i32* %4, align 4
  br label %12

12:                                               ; preds = %42, %0
  %13 = load i32, i32* %4, align 4
  %14 = load i32, i32* %2, align 4
  %15 = sub nsw i32 %14, 1
  %16 = icmp slt i32 %13, %15
  br i1 %16, label %17, label %45

17:                                               ; preds = %12
  %18 = load i32, i32* %4, align 4
  %19 = sext i32 %18 to i64
  %20 = getelementptr inbounds [100 x i8], [100 x i8]* %6, i64 0, i64 %19
  %21 = load i8, i8* %20, align 1
  %22 = sext i8 %21 to i32
  %23 = load i32, i32* %4, align 4
  %24 = add nsw i32 %23, 1
  %25 = sext i32 %24 to i64
  %26 = getelementptr inbounds [100 x i8], [100 x i8]* %6, i64 0, i64 %25
  %27 = load i8, i8* %26, align 1
  %28 = sext i8 %27 to i32
  %29 = icmp eq i32 %22, %28
  br i1 %29, label %30, label %41

30:                                               ; preds = %17
  %31 = load i32, i32* %4, align 4
  %32 = load i32, i32* %3, align 4
  %33 = sext i32 %32 to i64
  %34 = getelementptr inbounds [100 x %struct.hw], [100 x %struct.hw]* @queue, i64 0, i64 %33
  %35 = getelementptr inbounds %struct.hw, %struct.hw* %34, i32 0, i32 0
  store i32 %31, i32* %35, align 8
  %36 = load i32, i32* %3, align 4
  %37 = add nsw i32 %36, 1
  store i32 %37, i32* %3, align 4
  %38 = sext i32 %36 to i64
  %39 = getelementptr inbounds [100 x %struct.hw], [100 x %struct.hw]* @queue, i64 0, i64 %38
  %40 = getelementptr inbounds %struct.hw, %struct.hw* %39, i32 0, i32 1
  store i32 2, i32* %40, align 4
  br label %41

41:                                               ; preds = %30, %17
  br label %42

42:                                               ; preds = %41
  %43 = load i32, i32* %4, align 4
  %44 = add nsw i32 %43, 1
  store i32 %44, i32* %4, align 4
  br label %12

45:                                               ; preds = %12
  store i32 0, i32* %4, align 4
  br label %46

46:                                               ; preds = %126, %45
  %47 = load i32, i32* %4, align 4
  %48 = load i32, i32* %3, align 4
  %49 = icmp slt i32 %47, %48
  br i1 %49, label %50, label %129

50:                                               ; preds = %46
  store i32 0, i32* %5, align 4
  br label %51

51:                                               ; preds = %72, %50
  %52 = load i32, i32* %5, align 4
  %53 = load i32, i32* %4, align 4
  %54 = sext i32 %53 to i64
  %55 = getelementptr inbounds [100 x %struct.hw], [100 x %struct.hw]* @queue, i64 0, i64 %54
  %56 = getelementptr inbounds %struct.hw, %struct.hw* %55, i32 0, i32 1
  %57 = load i32, i32* %56, align 4
  %58 = icmp slt i32 %52, %57
  br i1 %58, label %59, label %75

59:                                               ; preds = %51
  %60 = load i32, i32* %4, align 4
  %61 = sext i32 %60 to i64
  %62 = getelementptr inbounds [100 x %struct.hw], [100 x %struct.hw]* @queue, i64 0, i64 %61
  %63 = getelementptr inbounds %struct.hw, %struct.hw* %62, i32 0, i32 0
  %64 = load i32, i32* %63, align 8
  %65 = load i32, i32* %5, align 4
  %66 = add nsw i32 %64, %65
  %67 = sext i32 %66 to i64
  %68 = getelementptr inbounds [100 x i8], [100 x i8]* %6, i64 0, i64 %67
  %69 = load i8, i8* %68, align 1
  %70 = sext i8 %69 to i32
  %71 = call i32 (i8*, ...) @printf(i8* getelementptr inbounds ([3 x i8], [3 x i8]* @.str, i64 0, i64 0), i32 %70)
  br label %72

72:                                               ; preds = %59
  %73 = load i32, i32* %5, align 4
  %74 = add nsw i32 %73, 1
  store i32 %74, i32* %5, align 4
  br label %51

75:                                               ; preds = %51
  %76 = call i32 (i8*, ...) @printf(i8* getelementptr inbounds ([2 x i8], [2 x i8]* @.str.1, i64 0, i64 0))
  %77 = load i32, i32* %4, align 4
  %78 = sext i32 %77 to i64
  %79 = getelementptr inbounds [100 x %struct.hw], [100 x %struct.hw]* @queue, i64 0, i64 %78
  %80 = getelementptr inbounds %struct.hw, %struct.hw* %79, i32 0, i32 0
  %81 = load i32, i32* %80, align 8
  %82 = sub nsw i32 %81, 1
  %83 = sext i32 %82 to i64
  %84 = getelementptr inbounds [100 x i8], [100 x i8]* %6, i64 0, i64 %83
  %85 = load i8, i8* %84, align 1
  %86 = sext i8 %85 to i32
  %87 = load i32, i32* %4, align 4
  %88 = sext i32 %87 to i64
  %89 = getelementptr inbounds [100 x %struct.hw], [100 x %struct.hw]* @queue, i64 0, i64 %88
  %90 = getelementptr inbounds %struct.hw, %struct.hw* %89, i32 0, i32 0
  %91 = load i32, i32* %90, align 8
  %92 = load i32, i32* %4, align 4
  %93 = sext i32 %92 to i64
  %94 = getelementptr inbounds [100 x %struct.hw], [100 x %struct.hw]* @queue, i64 0, i64 %93
  %95 = getelementptr inbounds %struct.hw, %struct.hw* %94, i32 0, i32 1
  %96 = load i32, i32* %95, align 4
  %97 = add nsw i32 %91, %96
  %98 = sext i32 %97 to i64
  %99 = getelementptr inbounds [100 x i8], [100 x i8]* %6, i64 0, i64 %98
  %100 = load i8, i8* %99, align 1
  %101 = sext i8 %100 to i32
  %102 = icmp eq i32 %86, %101
  br i1 %102, label %103, label %125

103:                                              ; preds = %75
  %104 = load i32, i32* %4, align 4
  %105 = sext i32 %104 to i64
  %106 = getelementptr inbounds [100 x %struct.hw], [100 x %struct.hw]* @queue, i64 0, i64 %105
  %107 = getelementptr inbounds %struct.hw, %struct.hw* %106, i32 0, i32 0
  %108 = load i32, i32* %107, align 8
  %109 = sub nsw i32 %108, 1
  %110 = load i32, i32* %3, align 4
  %111 = sext i32 %110 to i64
  %112 = getelementptr inbounds [100 x %struct.hw], [100 x %struct.hw]* @queue, i64 0, i64 %111
  %113 = getelementptr inbounds %struct.hw, %struct.hw* %112, i32 0, i32 0
  store i32 %109, i32* %113, align 8
  %114 = load i32, i32* %4, align 4
  %115 = sext i32 %114 to i64
  %116 = getelementptr inbounds [100 x %struct.hw], [100 x %struct.hw]* @queue, i64 0, i64 %115
  %117 = getelementptr inbounds %struct.hw, %struct.hw* %116, i32 0, i32 1
  %118 = load i32, i32* %117, align 4
  %119 = add nsw i32 %118, 2
  %120 = load i32, i32* %3, align 4
  %121 = add nsw i32 %120, 1
  store i32 %121, i32* %3, align 4
  %122 = sext i32 %120 to i64
  %123 = getelementptr inbounds [100 x %struct.hw], [100 x %struct.hw]* @queue, i64 0, i64 %122
  %124 = getelementptr inbounds %struct.hw, %struct.hw* %123, i32 0, i32 1
  store i32 %119, i32* %124, align 4
  br label %125

125:                                              ; preds = %103, %75
  br label %126

126:                                              ; preds = %125
  %127 = load i32, i32* %4, align 4
  %128 = add nsw i32 %127, 1
  store i32 %128, i32* %4, align 4
  br label %46

129:                                              ; preds = %46
  %130 = load i32, i32* %1, align 4
  ret i32 %130
}

declare dso_local i32 @gets(...) #1

; Function Attrs: nounwind readonly
declare dso_local i64 @strlen(i8*) #2

declare dso_local i32 @printf(i8*, ...) #1


!llvm.module.flags = !{!0}
!llvm.ident = !{!1}

!0 = !{i32 1, !"wchar_size", i32 4}
!1 = !{!"clang version 10.0.0-4ubuntu1 "}
